target datalayout = "e-m:e-p270:32:32-p271:32:32-p272:64:64-i64:64-i128:128-f80:128-n8:16:32:64-S128"
target triple = "x86_64-pc-linux-gnu"

%"class.std::__cxx11::basic_string" = type { %"struct.std::__cxx11::basic_string<char>::_Alloc_hider", i64, %union.anon }
%"struct.std::__cxx11::basic_string<char>::_Alloc_hider" = type { ptr }
%union.anon = type { i64, [8 x i8] }
%"class.std::allocator" = type { i8 }
%"class.tinygltf::TinyGLTF" = type { ptr, i64, i8, %"struct.tinygltf::FsCallbacks", ptr, ptr, ptr, ptr }
%"struct.tinygltf::FsCallbacks" = type { ptr, ptr, ptr, ptr, ptr }

@.str.76 = private unnamed_addr constant [37 x i8] c"Too short data size for glTF Binary.\00", align 1
@.str.77 = private unnamed_addr constant [15 x i8] c"Invalid magic.\00", align 1
@.str.78 = private unnamed_addr constant [21 x i8] c"Invalid glTF binary.\00", align 1

; Function Attrs: mustprogress nounwind uwtable
define internal void @_ZN8tinygltfL5swap4EPj(ptr noundef %0) #5 {
  %2 = alloca ptr, align 8
  store ptr %0, ptr %2, align 8
  ret void
}

; Function Attrs: mustprogress uwtable
define dso_local noundef zeroext i1 @_ZN8tinygltf8TinyGLTF20LoadBinaryFromMemoryEPNS_5ModelEPNSt7__cxx1112basic_stringIcSt11char_traitsIcESaIcEEES9_PKhjRKS8_j(ptr noundef nonnull align 8 dereferenceable(96) %0, ptr noundef %1, ptr noundef %2, ptr noundef %3, ptr noundef %4, i32 noundef %5, ptr noundef nonnull align 8 dereferenceable(32) %6, i32 noundef %7) #4 align 2 personality ptr @__gxx_personality_v0 {
  %9 = alloca i1, align 1
  %10 = alloca ptr, align 8
  %11 = alloca ptr, align 8
  %12 = alloca ptr, align 8
  %13 = alloca ptr, align 8
  %14 = alloca ptr, align 8
  %15 = alloca i32, align 4
  %16 = alloca ptr, align 8
  %17 = alloca i32, align 4
  %18 = alloca i32, align 4
  %19 = alloca i32, align 4
  %20 = alloca i32, align 4
  %21 = alloca i32, align 4
  %22 = alloca %"class.std::__cxx11::basic_string", align 8
  %23 = alloca %"class.std::allocator", align 1
  %24 = alloca ptr, align 8
  %25 = alloca i32, align 4
  %26 = alloca i8, align 1
  %27 = alloca i32, align 4
  store ptr %0, ptr %10, align 8
  store ptr %1, ptr %11, align 8
  store ptr %2, ptr %12, align 8
  store ptr %3, ptr %13, align 8
  store ptr %4, ptr %14, align 8
  store i32 %5, ptr %15, align 4
  store ptr %6, ptr %16, align 8
  store i32 %7, ptr %17, align 4
  %28 = load ptr, ptr %10, align 8
  %29 = load i32, ptr %15, align 4
  %30 = icmp ult i32 %29, 20
  br i1 %30, label %31, label %38

31:                                               ; preds = %8
  %32 = load ptr, ptr %12, align 8
  %33 = icmp ne ptr %32, null
  br i1 %33, label %34, label %37

34:                                               ; preds = %31
  %35 = load ptr, ptr %12, align 8
  %36 = call noundef nonnull align 8 dereferenceable(32) ptr @_ZNSt7__cxx1112basic_stringIcSt11char_traitsIcESaIcEEaSEPKc(ptr noundef nonnull align 8 dereferenceable(32) %35, ptr noundef @.str.76)
  br label %37

37:                                               ; preds = %34, %31
  store i1 false, ptr %9, align 1
  br label %146

38:                                               ; preds = %8
  %39 = load ptr, ptr %14, align 8
  %40 = getelementptr inbounds i8, ptr %39, i64 0
  %41 = load i8, ptr %40, align 1
  %42 = zext i8 %41 to i32
  %43 = icmp eq i32 %42, 103
  br i1 %43, label %44, label %63

44:                                               ; preds = %38
  %45 = load ptr, ptr %14, align 8
  %46 = getelementptr inbounds i8, ptr %45, i64 1
  %47 = load i8, ptr %46, align 1
  %48 = zext i8 %47 to i32
  %49 = icmp eq i32 %48, 108
  br i1 %49, label %50, label %63

50:                                               ; preds = %44
  %51 = load ptr, ptr %14, align 8
  %52 = getelementptr inbounds i8, ptr %51, i64 2
  %53 = load i8, ptr %52, align 1
  %54 = zext i8 %53 to i32
  %55 = icmp eq i32 %54, 84
  br i1 %55, label %56, label %63

56:                                               ; preds = %50
  %57 = load ptr, ptr %14, align 8
  %58 = getelementptr inbounds i8, ptr %57, i64 3
  %59 = load i8, ptr %58, align 1
  %60 = zext i8 %59 to i32
  %61 = icmp eq i32 %60, 70
  br i1 %61, label %62, label %63

62:                                               ; preds = %56
  br label %70

63:                                               ; preds = %56, %50, %44, %38
  %64 = load ptr, ptr %12, align 8
  %65 = icmp ne ptr %64, null
  br i1 %65, label %66, label %69

66:                                               ; preds = %63
  %67 = load ptr, ptr %12, align 8
  %68 = call noundef nonnull align 8 dereferenceable(32) ptr @_ZNSt7__cxx1112basic_stringIcSt11char_traitsIcESaIcEEaSEPKc(ptr noundef nonnull align 8 dereferenceable(32) %67, ptr noundef @.str.77)
  br label %69

69:                                               ; preds = %66, %63
  store i1 false, ptr %9, align 1
  br label %146

70:                                               ; preds = %62
  %71 = load ptr, ptr %14, align 8
  %72 = getelementptr inbounds i8, ptr %71, i64 4
  call void @llvm.memcpy.p0.p0.i64(ptr align 4 %18, ptr align 1 %72, i64 4, i1 false)
  call void @_ZN8tinygltfL5swap4EPj(ptr noundef %18)
  %73 = load ptr, ptr %14, align 8
  %74 = getelementptr inbounds i8, ptr %73, i64 8
  call void @llvm.memcpy.p0.p0.i64(ptr align 4 %19, ptr align 1 %74, i64 4, i1 false)
  call void @_ZN8tinygltfL5swap4EPj(ptr noundef %19)
  %75 = load ptr, ptr %14, align 8
  %76 = getelementptr inbounds i8, ptr %75, i64 12
  call void @llvm.memcpy.p0.p0.i64(ptr align 4 %20, ptr align 1 %76, i64 4, i1 false)
  call void @_ZN8tinygltfL5swap4EPj(ptr noundef %20)
  %77 = load ptr, ptr %14, align 8
  %78 = getelementptr inbounds i8, ptr %77, i64 16
  call void @llvm.memcpy.p0.p0.i64(ptr align 4 %21, ptr align 1 %78, i64 4, i1 false)
  call void @_ZN8tinygltfL5swap4EPj(ptr noundef %21)
  %79 = load i32, ptr %20, align 4
  %80 = add i32 20, %79
  %81 = load i32, ptr %15, align 4
  %82 = icmp ugt i32 %80, %81
  br i1 %82, label %93, label %83

83:                                               ; preds = %70
  %84 = load i32, ptr %20, align 4
  %85 = icmp ult i32 %84, 1
  br i1 %85, label %93, label %86

86:                                               ; preds = %83
  %87 = load i32, ptr %19, align 4
  %88 = load i32, ptr %15, align 4
  %89 = icmp ugt i32 %87, %88
  br i1 %89, label %93, label %90

90:                                               ; preds = %86
  %91 = load i32, ptr %21, align 4
  %92 = icmp ne i32 %91, 1313821514
  br i1 %92, label %93, label %100

93:                                               ; preds = %90, %86, %83, %70
  %94 = load ptr, ptr %12, align 8
  %95 = icmp ne ptr %94, null
  br i1 %95, label %96, label %99

96:                                               ; preds = %93
  %97 = load ptr, ptr %12, align 8
  %98 = call noundef nonnull align 8 dereferenceable(32) ptr @_ZNSt7__cxx1112basic_stringIcSt11char_traitsIcESaIcEEaSEPKc(ptr noundef nonnull align 8 dereferenceable(32) %97, ptr noundef @.str.78)
  br label %99

99:                                               ; preds = %96, %93
  store i1 false, ptr %9, align 1
  br label %146

100:                                              ; preds = %90
  %101 = load ptr, ptr %14, align 8
  %102 = getelementptr inbounds i8, ptr %101, i64 20
  %103 = load i32, ptr %20, align 4
  %104 = zext i32 %103 to i64
  call void @_ZNSaIcEC1Ev(ptr noundef nonnull align 1 dereferenceable(1) %23) #3
  invoke void @_ZNSt7__cxx1112basic_stringIcSt11char_traitsIcESaIcEEC1EPKcmRKS3_(ptr noundef nonnull align 8 dereferenceable(32) %22, ptr noundef %102, i64 noundef %104, ptr noundef nonnull align 1 dereferenceable(1) %23)
          to label %105 unwind label %136

105:                                              ; preds = %100
  call void @_ZNSaIcED1Ev(ptr noundef nonnull align 1 dereferenceable(1) %23) #3
  %106 = getelementptr inbounds %"class.tinygltf::TinyGLTF", ptr %28, i32 0, i32 2
  store i8 1, ptr %106, align 8
  %107 = load ptr, ptr %14, align 8
  %108 = getelementptr inbounds i8, ptr %107, i64 20
  %109 = load i32, ptr %20, align 4
  %110 = zext i32 %109 to i64
  %111 = getelementptr inbounds i8, ptr %108, i64 %110
  %112 = getelementptr inbounds i8, ptr %111, i64 8
  %113 = getelementptr inbounds %"class.tinygltf::TinyGLTF", ptr %28, i32 0, i32 0
  store ptr %112, ptr %113, align 8
  %114 = load i32, ptr %19, align 4
  %115 = load i32, ptr %20, align 4
  %116 = add i32 20, %115
  %117 = sub i32 %114, %116
  %118 = zext i32 %117 to i64
  %119 = getelementptr inbounds %"class.tinygltf::TinyGLTF", ptr %28, i32 0, i32 1
  store i64 %118, ptr %119, align 8
  %120 = load ptr, ptr %11, align 8
  %121 = load ptr, ptr %12, align 8
  %122 = load ptr, ptr %13, align 8
  %123 = load ptr, ptr %14, align 8
  %124 = getelementptr inbounds i8, ptr %123, i64 20
  %125 = load i32, ptr %20, align 4
  %126 = load ptr, ptr %16, align 8
  %127 = load i32, ptr %17, align 4
  %128 = invoke noundef zeroext i1 @_ZN8tinygltf8TinyGLTF14LoadFromStringEPNS_5ModelEPNSt7__cxx1112basic_stringIcSt11char_traitsIcESaIcEEES9_PKcjRKS8_j(ptr noundef nonnull align 8 dereferenceable(96) %28, ptr noundef %120, ptr noundef %121, ptr noundef %122, ptr noundef %124, i32 noundef %125, ptr noundef nonnull align 8 dereferenceable(32) %126, i32 noundef %127)
          to label %129 unwind label %140

129:                                              ; preds = %105
  %130 = zext i1 %128 to i8
  store i8 %130, ptr %26, align 1
  %131 = load i8, ptr %26, align 1
  %132 = trunc i8 %131 to i1
  br i1 %132, label %144, label %133

133:                                              ; preds = %129
  %134 = load i8, ptr %26, align 1
  %135 = trunc i8 %134 to i1
  store i1 %135, ptr %9, align 1
  store i32 1, ptr %27, align 4
  br label %145

136:                                              ; preds = %100
  %137 = landingpad { ptr, i32 }
          cleanup
  %138 = extractvalue { ptr, i32 } %137, 0
  store ptr %138, ptr %24, align 8
  %139 = extractvalue { ptr, i32 } %137, 1
  store i32 %139, ptr %25, align 4
  call void @_ZNSaIcED1Ev(ptr noundef nonnull align 1 dereferenceable(1) %23) #3
  br label %148

140:                                              ; preds = %105
  %141 = landingpad { ptr, i32 }
          cleanup
  %142 = extractvalue { ptr, i32 } %141, 0
  store ptr %142, ptr %24, align 8
  %143 = extractvalue { ptr, i32 } %141, 1
  store i32 %143, ptr %25, align 4
  call void @_ZNSt7__cxx1112basic_stringIcSt11char_traitsIcESaIcEED1Ev(ptr noundef nonnull align 8 dereferenceable(32) %22) #3
  br label %148

144:                                              ; preds = %129
  store i1 true, ptr %9, align 1
  store i32 1, ptr %27, align 4
  br label %145

145:                                              ; preds = %144, %133
  call void @_ZNSt7__cxx1112basic_stringIcSt11char_traitsIcESaIcEED1Ev(ptr noundef nonnull align 8 dereferenceable(32) %22) #3
  br label %146

146:                                              ; preds = %145, %99, %69, %37
  %147 = load i1, ptr %9, align 1
  ret i1 %147

148:                                              ; preds = %140, %136
  %149 = load ptr, ptr %24, align 8
  %150 = load i32, ptr %25, align 4
  %151 = insertvalue { ptr, i32 } poison, ptr %149, 0
  %152 = insertvalue { ptr, i32 } %151, i32 %150, 1
  resume { ptr, i32 } %152
}