; Function Attrs: mustprogress uwtable
define dso_local noundef zeroext i1 @_ZN8tinygltf8TinyGLTF20LoadBinaryFromMemoryEPNS_5ModelEPNSt7__cxx1112basic_stringIcSt11char_traitsIcESaIcEEES9_PKhjRKS8_j(ptr noundef nonnull align 8 dereferenceable(96) %0, ptr noundef %1, ptr noundef %2, ptr noundef %3, ptr noundef %4, i32 noundef %5, ptr noundef nonnull align 8 dereferenceable(32) %6, i32 noundef %7) local_unnamed_addr #3 align 2 personality ptr @__gxx_personality_v0 {
  %9 = alloca %"class.std::__cxx11::basic_string", align 8
  %10 = alloca %"class.std::allocator", align 1
  %11 = icmp ult i32 %5, 20
  br i1 %11, label %12, label %15

12:                                               ; preds = %8
  %.not42 = icmp eq ptr %2, null
  br i1 %.not42, label %65, label %13

13:                                               ; preds = %12
  %14 = tail call noundef nonnull align 8 dereferenceable(32) ptr @_ZNSt7__cxx1112basic_stringIcSt11char_traitsIcESaIcEEaSEPKc(ptr noundef nonnull align 8 dereferenceable(32) %2, ptr noundef nonnull @.str.76)
  br label %65

15:                                               ; preds = %8
  %16 = load i8, ptr %4, align 1
  %17 = icmp eq i8 %16, 103
  br i1 %17, label %18, label %30

18:                                               ; preds = %15
  %19 = getelementptr inbounds i8, ptr %4, i64 1
  %20 = load i8, ptr %19, align 1
  %21 = icmp eq i8 %20, 108
  br i1 %21, label %22, label %30

22:                                               ; preds = %18
  %23 = getelementptr inbounds i8, ptr %4, i64 2
  %24 = load i8, ptr %23, align 1
  %25 = icmp eq i8 %24, 84
  br i1 %25, label %26, label %30

26:                                               ; preds = %22
  %27 = getelementptr inbounds i8, ptr %4, i64 3
  %28 = load i8, ptr %27, align 1
  %29 = icmp eq i8 %28, 70
  br i1 %29, label %33, label %30

30:                                               ; preds = %26, %22, %18, %15
  %.not = icmp eq ptr %2, null
  br i1 %.not, label %65, label %31

31:                                               ; preds = %30
  %32 = tail call noundef nonnull align 8 dereferenceable(32) ptr @_ZNSt7__cxx1112basic_stringIcSt11char_traitsIcESaIcEEaSEPKc(ptr noundef nonnull align 8 dereferenceable(32) %2, ptr noundef nonnull @.str.77)
  br label %65

33:                                               ; preds = %26
  %34 = getelementptr inbounds i8, ptr %4, i64 8
  %35 = load i32, ptr %34, align 1
  %36 = getelementptr inbounds i8, ptr %4, i64 12
  %37 = load i32, ptr %36, align 1
  %38 = add i32 %37, 20
  %39 = icmp ugt i32 %38, %5
  %40 = icmp eq i32 %37, 0
  %or.cond = or i1 %40, %39
  br i1 %or.cond, label %46, label %41

41:                                               ; preds = %33
  %42 = getelementptr inbounds i8, ptr %4, i64 16
  %43 = load i32, ptr %42, align 1
  %44 = icmp ugt i32 %35, %5
  %45 = icmp ne i32 %43, 1313821514
  %or.cond3 = select i1 %44, i1 true, i1 %45
  br i1 %or.cond3, label %46, label %49

46:                                               ; preds = %41, %33
  %.not41 = icmp eq ptr %2, null
  br i1 %.not41, label %65, label %47

47:                                               ; preds = %46
  %48 = tail call noundef nonnull align 8 dereferenceable(32) ptr @_ZNSt7__cxx1112basic_stringIcSt11char_traitsIcESaIcEEaSEPKc(ptr noundef nonnull align 8 dereferenceable(32) %2, ptr noundef nonnull @.str.78)
  br label %65

49:                                               ; preds = %41
  %50 = getelementptr inbounds i8, ptr %4, i64 20
  %51 = zext i32 %37 to i64
  call void @_ZNSaIcEC1Ev(ptr noundef nonnull align 1 dereferenceable(1) %10) #30
  invoke void @_ZNSt7__cxx1112basic_stringIcSt11char_traitsIcESaIcEEC1EPKcmRKS3_(ptr noundef nonnull align 8 dereferenceable(32) %9, ptr noundef nonnull %50, i64 noundef %51, ptr noundef nonnull align 1 dereferenceable(1) %10)
          to label %52 unwind label %60

52:                                               ; preds = %49
  call void @_ZNSaIcED1Ev(ptr noundef nonnull align 1 dereferenceable(1) %10) #30
  %53 = getelementptr inbounds i8, ptr %0, i64 16
  store i8 1, ptr %53, align 8
  %54 = getelementptr inbounds i8, ptr %50, i64 %51
  %55 = getelementptr inbounds i8, ptr %54, i64 8
  store ptr %55, ptr %0, align 8
  %56 = sub i32 %35, %38
  %57 = zext i32 %56 to i64
  %58 = getelementptr inbounds i8, ptr %0, i64 8
  store i64 %57, ptr %58, align 8
  %59 = invoke noundef zeroext i1 @_ZN8tinygltf8TinyGLTF14LoadFromStringEPNS_5ModelEPNSt7__cxx1112basic_stringIcSt11char_traitsIcESaIcEEES9_PKcjRKS8_j(ptr noundef nonnull align 8 dereferenceable(96) %0, ptr noundef %1, ptr noundef %2, ptr noundef %3, ptr noundef nonnull %50, i32 noundef %37, ptr noundef nonnull align 8 dereferenceable(32) %6, i32 noundef %7)
          to label %64 unwind label %62

60:                                               ; preds = %49
  %61 = landingpad { ptr, i32 }
          cleanup
  call void @_ZNSaIcED1Ev(ptr noundef nonnull align 1 dereferenceable(1) %10) #30
  br label %66

62:                                               ; preds = %52
  %63 = landingpad { ptr, i32 }
          cleanup
  call void @_ZNSt7__cxx1112basic_stringIcSt11char_traitsIcESaIcEED1Ev(ptr noundef nonnull align 8 dereferenceable(32) %9) #30
  br label %66

64:                                               ; preds = %52
  call void @_ZNSt7__cxx1112basic_stringIcSt11char_traitsIcESaIcEED1Ev(ptr noundef nonnull align 8 dereferenceable(32) %9) #30
  br label %65

65:                                               ; preds = %46, %47, %30, %31, %12, %13, %64
  %.1 = phi i1 [ %59, %64 ], [ false, %13 ], [ false, %12 ], [ false, %31 ], [ false, %30 ], [ false, %47 ], [ false, %46 ]
  ret i1 %.1

66:                                               ; preds = %62, %60
  %.pn = phi { ptr, i32 } [ %63, %62 ], [ %61, %60 ]
  resume { ptr, i32 } %.pn
}